target datalayout = "e-m:e-p270:32:32-p271:32:32-p272:64:64-i64:64-i128:128-f80:128-n8:16:32:64-S128"
target triple = "x86_64-pc-linux-gnu"

%struct.b2SurfaceMaterial = type { float, float, float, float, i32, i32 }
%struct.b2Filter = type { i64, i64, i32 }
%struct.b2ChainDef = type { ptr, ptr, i32, ptr, i32, %struct.b2Filter, i8, i32 }

@__const.b2DefaultFilter.filter = private unnamed_addr constant { i64, i64, i32, [4 x i8] } { i64 1, i64 -1, i32 0, [4 x i8] zeroinitializer }, align 8
@b2DefaultChainDef.defaultMaterial = internal global %struct.b2SurfaceMaterial { float 0x3FE3333340000000, float 0.000000e+00, float 0.000000e+00, float 0.000000e+00, i32 0, i32 0 }, align 4

; Function Attrs: nounwind uwtable
define void @b2DefaultFilter(ptr dead_on_unwind noalias writable sret(%struct.b2Filter) align 8 %0) #0 {
  call void @llvm.memcpy.p0.p0.i64(ptr align 8 %0, ptr align 8 @__const.b2DefaultFilter.filter, i64 24, i1 false)
  ret void
}

; Function Attrs: nounwind uwtable
define void @b2DefaultChainDef(ptr dead_on_unwind noalias writable sret(%struct.b2ChainDef) align 8 %0) #0 {
  %2 = alloca %struct.b2Filter, align 8
  call void @llvm.memset.p0.i64(ptr align 8 %0, i8 0, i64 72, i1 false)
  %3 = getelementptr inbounds nuw %struct.b2ChainDef, ptr %0, i32 0, i32 3
  store ptr @b2DefaultChainDef.defaultMaterial, ptr %3, align 8, !tbaa !46
  %4 = getelementptr inbounds nuw %struct.b2ChainDef, ptr %0, i32 0, i32 4
  store i32 1, ptr %4, align 8, !tbaa !50
  %5 = getelementptr inbounds nuw %struct.b2ChainDef, ptr %0, i32 0, i32 5
  call void @llvm.lifetime.start.p0(i64 24, ptr %2) #5
  call void @b2DefaultFilter(ptr dead_on_unwind writable sret(%struct.b2Filter) align 8 %2)
  call void @llvm.memcpy.p0.p0.i64(ptr align 8 %5, ptr align 8 %2, i64 24, i1 false), !tbaa.struct !41
  call void @llvm.lifetime.end.p0(i64 24, ptr %2) #5
  %6 = getelementptr inbounds nuw %struct.b2ChainDef, ptr %0, i32 0, i32 7
  store i32 1152023, ptr %6, align 4, !tbaa !51
  ret void
}