; Function Attrs: mustprogress nofree norecurse nosync nounwind willreturn memory(argmem: readwrite) uwtable
define void @b2DefaultChainDef(ptr dead_on_unwind noalias writable writeonly sret(%struct.b2ChainDef) align 8 captures(none) initializes((0, 72)) %0) local_unnamed_addr #3 {
  tail call void @llvm.memset.p0.i64(ptr noundef nonnull align 8 dereferenceable(72) %0, i8 0, i64 72, i1 false)
  %2 = getelementptr inbounds nuw i8, ptr %0, i64 24
  store ptr @b2DefaultChainDef.defaultMaterial, ptr %2, align 8, !tbaa !43
  %3 = getelementptr inbounds nuw i8, ptr %0, i64 32
  store i32 1, ptr %3, align 8, !tbaa !47
  %4 = getelementptr inbounds nuw i8, ptr %0, i64 40
  tail call void @llvm.memcpy.p0.p0.i64(ptr noundef nonnull align 8 dereferenceable(24) %4, ptr noundef nonnull align 8 dereferenceable(24) @__const.b2DefaultFilter.filter, i64 24, i1 false), !tbaa.struct !38
  %5 = getelementptr inbounds nuw i8, ptr %0, i64 68
  store i32 1152023, ptr %5, align 4, !tbaa !48
  ret void
}